; Function Attrs: mustprogress nofree norecurse nosync nounwind optsize willreturn memory(argmem: readwrite) uwtable
define internal noundef zeroext i1 @"_ZNSt17_Function_handlerIFiiEZZL26nanobind_init_test_stl_extRN8nanobind7module_EENK3$_0clEvEUliE_E10_M_managerERSt9_Any_dataRKS7_St18_Manager_operation"(ptr noundef nonnull writeonly align 8 captures(none) dereferenceable(16) %0, ptr noundef nonnull align 8 dereferenceable(16) %1, i32 noundef %2) #21 align 2 personality ptr @__gxx_personality_v0 {
  switch i32 %2, label %"_ZNSt14_Function_base13_Base_managerIZZL26nanobind_init_test_stl_extRN8nanobind7module_EENK3$_0clEvEUliE_E10_M_managerERSt9_Any_dataRKS7_St18_Manager_operation.exit" [
    i32 0, label %4
    i32 1, label %5
    i32 2, label %6
  ]

4:                                                ; preds = %3
  store ptr @"_ZTIZZL26nanobind_init_test_stl_extRN8nanobind7module_EENK3$_0clEvEUliE_", ptr %0, align 8, !tbaa !18
  br label %"_ZNSt14_Function_base13_Base_managerIZZL26nanobind_init_test_stl_extRN8nanobind7module_EENK3$_0clEvEUliE_E10_M_managerERSt9_Any_dataRKS7_St18_Manager_operation.exit"

5:                                                ; preds = %3
  store ptr %1, ptr %0, align 8, !tbaa !351
  br label %"_ZNSt14_Function_base13_Base_managerIZZL26nanobind_init_test_stl_extRN8nanobind7module_EENK3$_0clEvEUliE_E10_M_managerERSt9_Any_dataRKS7_St18_Manager_operation.exit"

6:                                                ; preds = %3
  %.val.i = load i32, ptr %1, align 8, !tbaa !128
  store i32 %.val.i, ptr %0, align 8, !tbaa !128
  br label %"_ZNSt14_Function_base13_Base_managerIZZL26nanobind_init_test_stl_extRN8nanobind7module_EENK3$_0clEvEUliE_E10_M_managerERSt9_Any_dataRKS7_St18_Manager_operation.exit"

"_ZNSt14_Function_base13_Base_managerIZZL26nanobind_init_test_stl_extRN8nanobind7module_EENK3$_0clEvEUliE_E10_M_managerERSt9_Any_dataRKS7_St18_Manager_operation.exit": ; preds = %3, %6, %5, %4
  ret i1 false
}